; Function Attrs: mustprogress nounwind uwtable
define void @_ZN6casadi8LinsolQrD2Ev(ptr noundef nonnull align 8 dereferenceable(272) %0) unnamed_addr #3 align 2 personality ptr @__gxx_personality_v0 {
  store ptr getelementptr inbounds ({ [27 x ptr], [3 x ptr] }, ptr @_ZTVN6casadi8LinsolQrE, i64 0, i32 0, i64 2), ptr %0, align 8
  %2 = getelementptr inbounds i8, ptr %0, i64 168
  store ptr getelementptr inbounds ({ [27 x ptr], [3 x ptr] }, ptr @_ZTVN6casadi8LinsolQrE, i64 0, i32 1, i64 2), ptr %2, align 8
  invoke void @_ZN6casadi13ProtoFunction9clear_memEv(ptr noundef nonnull align 8 dereferenceable(168) %0)
          to label %3 unwind label %12

3:                                                ; preds = %1
  %4 = getelementptr inbounds i8, ptr %0, i64 240
  tail call void @_ZN6casadi12SharedObjectD2Ev(ptr noundef nonnull align 8 dereferenceable(8) %4) #21
  %5 = getelementptr inbounds i8, ptr %0, i64 232
  tail call void @_ZN6casadi12SharedObjectD2Ev(ptr noundef nonnull align 8 dereferenceable(8) %5) #21
  %6 = getelementptr inbounds i8, ptr %0, i64 208
  %7 = load ptr, ptr %6, align 8
  %.not.i.i.i = icmp eq ptr %7, null
  br i1 %.not.i.i.i, label %_ZNSt6vectorIxSaIxEED2Ev.exit, label %8

8:                                                ; preds = %3
  tail call void @_ZdlPv(ptr noundef nonnull %7) #23
  br label %_ZNSt6vectorIxSaIxEED2Ev.exit

_ZNSt6vectorIxSaIxEED2Ev.exit:                    ; preds = %3, %8
  %9 = getelementptr inbounds i8, ptr %0, i64 184
  %10 = load ptr, ptr %9, align 8
  %.not.i.i.i1 = icmp eq ptr %10, null
  br i1 %.not.i.i.i1, label %_ZNSt6vectorIxSaIxEED2Ev.exit2, label %11

11:                                               ; preds = %_ZNSt6vectorIxSaIxEED2Ev.exit
  tail call void @_ZdlPv(ptr noundef nonnull %10) #23
  br label %_ZNSt6vectorIxSaIxEED2Ev.exit2

_ZNSt6vectorIxSaIxEED2Ev.exit2:                   ; preds = %_ZNSt6vectorIxSaIxEED2Ev.exit, %11
  tail call void @_ZN6casadi14LinsolInternalD2Ev(ptr noundef nonnull align 8 dereferenceable(184) %0) #21
  ret void

12:                                               ; preds = %1
  %13 = landingpad { ptr, i32 }
          catch ptr null
  %14 = extractvalue { ptr, i32 } %13, 0
  tail call void @__clang_call_terminate(ptr %14) #24
  unreachable
}